; Function Attrs: nounwind uwtable
define ptr @l_Std_Sat_AIG_toCNF_Cache_addFalse___rarg___boxed(ptr noundef %0, ptr noundef %1, ptr readnone captures(none) %2, ptr readnone captures(none) %3) #0 {
  %5 = ptrtoint ptr %1 to i64
  %6 = lshr i64 %5, 1
  %.val.i.i.i.i = load i32, ptr %0, align 4, !tbaa !4
  %7 = icmp eq i32 %.val.i.i.i.i, 1
  br i1 %7, label %lean_ensure_exclusive_array.exit.i.i.i, label %8

8:                                                ; preds = %4
  %9 = tail call ptr @lean_copy_expand_array(ptr noundef nonnull %0, i1 noundef zeroext false) #3
  br label %lean_ensure_exclusive_array.exit.i.i.i

lean_ensure_exclusive_array.exit.i.i.i:           ; preds = %8, %4
  %.0.i.i.i.i = phi ptr [ %9, %8 ], [ %0, %4 ]
  %10 = getelementptr inbounds nuw i8, ptr %.0.i.i.i.i, i64 24
  %11 = getelementptr inbounds nuw ptr, ptr %10, i64 %6
  %12 = load ptr, ptr %11, align 8, !tbaa !9
  %13 = ptrtoint ptr %12 to i64
  %14 = and i64 %13, 1
  %.not.i.i.i = icmp eq i64 %14, 0
  br i1 %.not.i.i.i, label %15, label %l_Std_Sat_AIG_toCNF_Cache_addFalse___rarg.exit

15:                                               ; preds = %lean_ensure_exclusive_array.exit.i.i.i
  %16 = load i32, ptr %12, align 4, !tbaa !4
  %17 = icmp sgt i32 %16, 1
  br i1 %17, label %18, label %20, !prof !13

18:                                               ; preds = %15
  %19 = add nsw i32 %16, -1
  store i32 %19, ptr %12, align 4, !tbaa !4
  br label %l_Std_Sat_AIG_toCNF_Cache_addFalse___rarg.exit

20:                                               ; preds = %15
  %.not.i.i.i.i = icmp eq i32 %16, 0
  br i1 %.not.i.i.i.i, label %l_Std_Sat_AIG_toCNF_Cache_addFalse___rarg.exit, label %21

21:                                               ; preds = %20
  tail call void @lean_dec_ref_cold(ptr noundef nonnull %12) #3
  br label %l_Std_Sat_AIG_toCNF_Cache_addFalse___rarg.exit

l_Std_Sat_AIG_toCNF_Cache_addFalse___rarg.exit:   ; preds = %lean_ensure_exclusive_array.exit.i.i.i, %18, %20, %21
  store ptr inttoptr (i64 3 to ptr), ptr %11, align 8, !tbaa !9
  %22 = and i64 %5, 1
  %.not = icmp eq i64 %22, 0
  br i1 %.not, label %23, label %lean_dec.exit

23:                                               ; preds = %l_Std_Sat_AIG_toCNF_Cache_addFalse___rarg.exit
  %24 = load i32, ptr %1, align 4, !tbaa !4
  %25 = icmp sgt i32 %24, 1
  br i1 %25, label %26, label %28, !prof !13

26:                                               ; preds = %23
  %27 = add nsw i32 %24, -1
  store i32 %27, ptr %1, align 4, !tbaa !4
  br label %lean_dec.exit

28:                                               ; preds = %23
  %.not.i = icmp eq i32 %24, 0
  br i1 %.not.i, label %lean_dec.exit, label %29

29:                                               ; preds = %28
  tail call void @lean_dec_ref_cold(ptr noundef nonnull %1) #3
  br label %lean_dec.exit

lean_dec.exit:                                    ; preds = %29, %28, %26, %l_Std_Sat_AIG_toCNF_Cache_addFalse___rarg.exit
  ret ptr %.0.i.i.i.i
}